; Function Attrs: mustprogress uwtable
define void @_ZN6icu_7715MeasureUnitImplC2ERKNS_14SingleUnitImplER10UErrorCode(ptr noundef nonnull align 8 dereferenceable(168) initializes((0, 4), (8, 12)) %0, ptr noundef nonnull align 4 dereferenceable(12) %1, ptr noundef nonnull align 4 dereferenceable(4) %2) unnamed_addr #1 align 2 personality ptr @__gxx_personality_v0 {
  store i32 0, ptr %0, align 8, !tbaa !76
  %4 = getelementptr inbounds nuw i8, ptr %0, i64 8
  store i32 0, ptr %4, align 8, !tbaa !28
  %5 = getelementptr inbounds nuw i8, ptr %0, i64 16
  %6 = getelementptr inbounds nuw i8, ptr %0, i64 32
  store ptr %6, ptr %5, align 8, !tbaa !33
  %7 = getelementptr inbounds nuw i8, ptr %0, i64 24
  store i32 8, ptr %7, align 8, !tbaa !83
  %8 = getelementptr inbounds nuw i8, ptr %0, i64 28
  store i8 0, ptr %8, align 4, !tbaa !45
  %9 = getelementptr inbounds nuw i8, ptr %0, i64 96
  invoke void @_ZN6icu_7715MaybeStackArrayIcLi40EEC1Ev(ptr noundef nonnull align 8 dereferenceable(60) %9)
          to label %10 unwind label %16

10:                                               ; preds = %3
  %11 = getelementptr inbounds nuw i8, ptr %0, i64 152
  store i32 0, ptr %11, align 8, !tbaa !15
  %12 = load ptr, ptr %9, align 8, !tbaa !3
  store i8 0, ptr %12, align 1, !tbaa !17
  %13 = getelementptr inbounds nuw i8, ptr %0, i64 160
  store i64 0, ptr %13, align 8, !tbaa !81
  %14 = invoke noundef zeroext i1 @_ZN6icu_7715MeasureUnitImpl16appendSingleUnitERKNS_14SingleUnitImplER10UErrorCode(ptr noundef nonnull align 8 dereferenceable(168) %0, ptr noundef nonnull align 4 dereferenceable(12) %1, ptr noundef nonnull align 4 dereferenceable(4) %2)
          to label %15 unwind label %18

15:                                               ; preds = %10
  ret void

16:                                               ; preds = %3
  %17 = landingpad { ptr, i32 }
          cleanup
  br label %20

18:                                               ; preds = %10
  %19 = landingpad { ptr, i32 }
          cleanup
  tail call void @_ZN6icu_7715MaybeStackArrayIcLi40EED1Ev(ptr noundef nonnull align 8 dereferenceable(60) %9) #18
  br label %20

20:                                               ; preds = %18, %16
  %.pn = phi { ptr, i32 } [ %19, %18 ], [ %17, %16 ]
  tail call void @_ZN6icu_7710MemoryPoolINS_14SingleUnitImplELi8EED2Ev(ptr noundef nonnull align 8 dereferenceable(88) %4) #18
  resume { ptr, i32 } %.pn
}